Archive member included to satisfy reference by file (symbol)

c:/program files (x86)/gnu tools arm embedded/5.4 2016q3/bin/../lib/gcc/arm-none-eabi/5.4.1/armv7-m\libgcc.a(_arm_addsubdf3.o)
                              ..\obj\adc.o (__aeabi_dsub)
c:/program files (x86)/gnu tools arm embedded/5.4 2016q3/bin/../lib/gcc/arm-none-eabi/5.4.1/armv7-m\libgcc.a(_arm_muldivdf3.o)
                              ..\obj\adc.o (__aeabi_dmul)
c:/program files (x86)/gnu tools arm embedded/5.4 2016q3/bin/../lib/gcc/arm-none-eabi/5.4.1/armv7-m\libgcc.a(_arm_fixunsdfsi.o)
                              ..\obj\adc.o (__aeabi_d2uiz)
c:/program files (x86)/gnu tools arm embedded/5.4 2016q3/bin/../lib/gcc/arm-none-eabi/5.4.1/../../../../arm-none-eabi/lib/armv7-m\libg.a(lib_a-impure.o)
                              ..\obj\printf.o (_impure_ptr)
c:/program files (x86)/gnu tools arm embedded/5.4 2016q3/bin/../lib/gcc/arm-none-eabi/5.4.1/../../../../arm-none-eabi/lib/armv7-m\libg.a(lib_a-memcpy.o)
                              ..\obj\startup_stm32f10x_hd.o (memcpy)
c:/program files (x86)/gnu tools arm embedded/5.4 2016q3/bin/../lib/gcc/arm-none-eabi/5.4.1/../../../../arm-none-eabi/lib/armv7-m\libg.a(lib_a-memset.o)
                              ..\obj\printf.o (memset)
c:/program files (x86)/gnu tools arm embedded/5.4 2016q3/bin/../lib/gcc/arm-none-eabi/5.4.1/../../../../arm-none-eabi/lib/armv7-m\libg.a(lib_a-strlen-stub.o)
                              ..\obj\usart.o (strlen)

Allocating common symbols
Common symbol       size              file

parser2             0x71              ..\obj\datalink.o
parser1             0x71              ..\obj\datalink.o
adc_converted_value
                    0x2               ..\obj\adc.o
task_1s             0x2               ..\obj\schedule.o
task_1ms            0x2               ..\obj\schedule.o

Discarded input sections

 .text          0x00000000        0x0 ..\obj\system_stm32f10x.o
 .data          0x00000000       0x14 ..\obj\system_stm32f10x.o
 .bss           0x00000000        0x0 ..\obj\system_stm32f10x.o
 .text.SystemCoreClockUpdate
                0x00000000       0x58 ..\obj\system_stm32f10x.o
 .text          0x00000000        0x0 ..\obj\startup_stm32f10x_hd.o
 .data          0x00000000        0x0 ..\obj\startup_stm32f10x_hd.o
 .bss           0x00000000        0x0 ..\obj\startup_stm32f10x_hd.o
 .text          0x00000000        0x0 ..\obj\stm32f10x_gpio.o
 .data          0x00000000        0x0 ..\obj\stm32f10x_gpio.o
 .bss           0x00000000        0x0 ..\obj\stm32f10x_gpio.o
 .text.GPIO_DeInit
                0x00000000       0xdc ..\obj\stm32f10x_gpio.o
 .text.GPIO_AFIODeInit
                0x00000000       0x18 ..\obj\stm32f10x_gpio.o
 .text.GPIO_StructInit
                0x00000000       0x10 ..\obj\stm32f10x_gpio.o
 .text.GPIO_ReadInputDataBit
                0x00000000        0xc ..\obj\stm32f10x_gpio.o
 .text.GPIO_ReadInputData
                0x00000000        0x8 ..\obj\stm32f10x_gpio.o
 .text.GPIO_ReadOutputDataBit
                0x00000000        0xc ..\obj\stm32f10x_gpio.o
 .text.GPIO_ReadOutputData
                0x00000000        0x8 ..\obj\stm32f10x_gpio.o
 .text.GPIO_SetBits
                0x00000000        0x4 ..\obj\stm32f10x_gpio.o
 .text.GPIO_ResetBits
                0x00000000        0x4 ..\obj\stm32f10x_gpio.o
 .text.GPIO_WriteBit
                0x00000000        0xc ..\obj\stm32f10x_gpio.o
 .text.GPIO_Write
                0x00000000        0x4 ..\obj\stm32f10x_gpio.o
 .text.GPIO_PinLockConfig
                0x00000000       0x10 ..\obj\stm32f10x_gpio.o
 .text.GPIO_EventOutputConfig
                0x00000000       0x1c ..\obj\stm32f10x_gpio.o
 .text.GPIO_EventOutputCmd
                0x00000000        0xc ..\obj\stm32f10x_gpio.o
 .text.GPIO_PinRemapConfig
                0x00000000       0x6c ..\obj\stm32f10x_gpio.o
 .text.GPIO_EXTILineConfig
                0x00000000       0x2c ..\obj\stm32f10x_gpio.o
 .text.GPIO_ETH_MediaInterfaceConfig
                0x00000000        0xc ..\obj\stm32f10x_gpio.o
 .text          0x00000000        0x0 ..\obj\main.o
 .data          0x00000000        0x0 ..\obj\main.o
 .bss           0x00000000        0x0 ..\obj\main.o
 .text          0x00000000        0x0 ..\obj\init.o
 .data          0x00000000        0x0 ..\obj\init.o
 .bss           0x00000000        0x0 ..\obj\init.o
 .text          0x00000000        0x0 ..\obj\playvoice.o
 .data          0x00000000        0x0 ..\obj\playvoice.o
 .bss           0x00000000        0x0 ..\obj\playvoice.o
 .text          0x00000000        0x0 ..\obj\printf.o
 .data          0x00000000      0x428 ..\obj\printf.o
 .bss           0x00000000        0x0 ..\obj\printf.o
 .text.PrintChar
                0x00000000        0xc ..\obj\printf.o
 .text.PutChar  0x00000000        0x8 ..\obj\printf.o
 .text.PutString
                0x00000000       0x20 ..\obj\printf.o
 .text.snprintf
                0x00000000       0x20 ..\obj\printf.o
 .text.vsprintf
                0x00000000        0xc ..\obj\printf.o
 .text.vprintf  0x00000000       0xa0 ..\obj\printf.o
 .text.fprintf  0x00000000       0xb0 ..\obj\printf.o
 .text.sprintf  0x00000000       0x20 ..\obj\printf.o
 .text.puts     0x00000000       0x44 ..\obj\printf.o
 .text.fputc    0x00000000       0x30 ..\obj\printf.o
 .text.fputs    0x00000000       0x44 ..\obj\printf.o
 .text          0x00000000        0x0 ..\obj\stm32f10x_rcc.o
 .bss           0x00000000        0x0 ..\obj\stm32f10x_rcc.o
 .text.RCC_DeInit
                0x00000000       0x40 ..\obj\stm32f10x_rcc.o
 .text.RCC_HSEConfig
                0x00000000       0x38 ..\obj\stm32f10x_rcc.o
 .text.RCC_WaitForHSEStartUp
                0x00000000       0x34 ..\obj\stm32f10x_rcc.o
 .text.RCC_AdjustHSICalibrationValue
                0x00000000       0x14 ..\obj\stm32f10x_rcc.o
 .text.RCC_HSICmd
                0x00000000        0xc ..\obj\stm32f10x_rcc.o
 .text.RCC_PLLConfig
                0x00000000       0x14 ..\obj\stm32f10x_rcc.o
 .text.RCC_PLLCmd
                0x00000000        0xc ..\obj\stm32f10x_rcc.o
 .text.RCC_SYSCLKConfig
                0x00000000       0x14 ..\obj\stm32f10x_rcc.o
 .text.RCC_GetSYSCLKSource
                0x00000000       0x10 ..\obj\stm32f10x_rcc.o
 .text.RCC_HCLKConfig
                0x00000000       0x14 ..\obj\stm32f10x_rcc.o
 .text.RCC_PCLK1Config
                0x00000000       0x14 ..\obj\stm32f10x_rcc.o
 .text.RCC_PCLK2Config
                0x00000000       0x14 ..\obj\stm32f10x_rcc.o
 .text.RCC_ITConfig
                0x00000000       0x1c ..\obj\stm32f10x_rcc.o
 .text.RCC_USBCLKConfig
                0x00000000        0xc ..\obj\stm32f10x_rcc.o
 .text.RCC_LSEConfig
                0x00000000       0x20 ..\obj\stm32f10x_rcc.o
 .text.RCC_LSICmd
                0x00000000        0xc ..\obj\stm32f10x_rcc.o
 .text.RCC_RTCCLKConfig
                0x00000000       0x10 ..\obj\stm32f10x_rcc.o
 .text.RCC_RTCCLKCmd
                0x00000000        0xc ..\obj\stm32f10x_rcc.o
 .text.RCC_APB2PeriphResetCmd
                0x00000000       0x1c ..\obj\stm32f10x_rcc.o
 .text.RCC_APB1PeriphResetCmd
                0x00000000       0x1c ..\obj\stm32f10x_rcc.o
 .text.RCC_BackupResetCmd
                0x00000000        0xc ..\obj\stm32f10x_rcc.o
 .text.RCC_ClockSecuritySystemCmd
                0x00000000        0xc ..\obj\stm32f10x_rcc.o
 .text.RCC_MCOConfig
                0x00000000        0xc ..\obj\stm32f10x_rcc.o
 .text.RCC_GetFlagStatus
                0x00000000       0x34 ..\obj\stm32f10x_rcc.o
 .text.RCC_ClearFlag
                0x00000000       0x10 ..\obj\stm32f10x_rcc.o
 .text.RCC_GetITStatus
                0x00000000       0x14 ..\obj\stm32f10x_rcc.o
 .text.RCC_ClearITPendingBit
                0x00000000        0xc ..\obj\stm32f10x_rcc.o
 .text          0x00000000        0x0 ..\obj\StreamParser.o
 .data          0x00000000        0x0 ..\obj\StreamParser.o
 .bss           0x00000000        0x0 ..\obj\StreamParser.o
 .text.parsePacketPayload
                0x00000000       0x90 ..\obj\StreamParser.o
 .text          0x00000000        0x0 ..\obj\stm32f10x_adc.o
 .data          0x00000000        0x0 ..\obj\stm32f10x_adc.o
 .bss           0x00000000        0x0 ..\obj\stm32f10x_adc.o
 .text.ADC_DeInit
                0x00000000       0x6c ..\obj\stm32f10x_adc.o
 .text.ADC_StructInit
                0x00000000       0x14 ..\obj\stm32f10x_adc.o
 .text.ADC_ITConfig
                0x00000000       0x14 ..\obj\stm32f10x_adc.o
 .text.ADC_GetSoftwareStartConvStatus
                0x00000000        0x8 ..\obj\stm32f10x_adc.o
 .text.ADC_DiscModeChannelCountConfig
                0x00000000       0x10 ..\obj\stm32f10x_adc.o
 .text.ADC_DiscModeCmd
                0x00000000       0x14 ..\obj\stm32f10x_adc.o
 .text.ADC_ExternalTrigConvCmd
                0x00000000       0x14 ..\obj\stm32f10x_adc.o
 .text.ADC_GetConversionValue
                0x00000000        0x8 ..\obj\stm32f10x_adc.o
 .text.ADC_GetDualModeConversionValue
                0x00000000        0xc ..\obj\stm32f10x_adc.o
 .text.ADC_AutoInjectedConvCmd
                0x00000000       0x14 ..\obj\stm32f10x_adc.o
 .text.ADC_InjectedDiscModeCmd
                0x00000000       0x14 ..\obj\stm32f10x_adc.o
 .text.ADC_ExternalTrigInjectedConvConfig
                0x00000000        0xc ..\obj\stm32f10x_adc.o
 .text.ADC_ExternalTrigInjectedConvCmd
                0x00000000       0x14 ..\obj\stm32f10x_adc.o
 .text.ADC_SoftwareStartInjectedConvCmd
                0x00000000       0x14 ..\obj\stm32f10x_adc.o
 .text.ADC_GetSoftwareStartInjectedConvCmdStatus
                0x00000000        0x8 ..\obj\stm32f10x_adc.o
 .text.ADC_InjectedChannelConfig
                0x00000000       0x58 ..\obj\stm32f10x_adc.o
 .text.ADC_InjectedSequencerLengthConfig
                0x00000000       0x10 ..\obj\stm32f10x_adc.o
 .text.ADC_SetInjectedOffset
                0x00000000       0x18 ..\obj\stm32f10x_adc.o
 .text.ADC_GetInjectedConversionValue
                0x00000000       0x1c ..\obj\stm32f10x_adc.o
 .text.ADC_AnalogWatchdogCmd
                0x00000000       0x10 ..\obj\stm32f10x_adc.o
 .text.ADC_AnalogWatchdogThresholdsConfig
                0x00000000        0x8 ..\obj\stm32f10x_adc.o
 .text.ADC_AnalogWatchdogSingleChannelConfig
                0x00000000        0xc ..\obj\stm32f10x_adc.o
 .text.ADC_TempSensorVrefintCmd
                0x00000000       0x1c ..\obj\stm32f10x_adc.o
 .text.ADC_GetFlagStatus
                0x00000000        0xc ..\obj\stm32f10x_adc.o
 .text.ADC_ClearFlag
                0x00000000        0x8 ..\obj\stm32f10x_adc.o
 .text.ADC_GetITStatus
                0x00000000       0x18 ..\obj\stm32f10x_adc.o
 .text.ADC_ClearITPendingBit
                0x00000000        0x8 ..\obj\stm32f10x_adc.o
 .text          0x00000000        0x0 ..\obj\stm32f10x_usart.o
 .data          0x00000000        0x0 ..\obj\stm32f10x_usart.o
 .bss           0x00000000        0x0 ..\obj\stm32f10x_usart.o
 .text.USART_DeInit
                0x00000000       0xb0 ..\obj\stm32f10x_usart.o
 .text.USART_StructInit
                0x00000000       0x18 ..\obj\stm32f10x_usart.o
 .text.USART_ClockInit
                0x00000000       0x24 ..\obj\stm32f10x_usart.o
 .text.USART_ClockStructInit
                0x00000000        0xc ..\obj\stm32f10x_usart.o
 .text.USART_DMACmd
                0x00000000       0x14 ..\obj\stm32f10x_usart.o
 .text.USART_SetAddress
                0x00000000       0x18 ..\obj\stm32f10x_usart.o
 .text.USART_WakeUpConfig
                0x00000000       0x18 ..\obj\stm32f10x_usart.o
 .text.USART_ReceiverWakeUpCmd
                0x00000000       0x1c ..\obj\stm32f10x_usart.o
 .text.USART_LINBreakDetectLengthConfig
                0x00000000       0x18 ..\obj\stm32f10x_usart.o
 .text.USART_LINCmd
                0x00000000       0x1c ..\obj\stm32f10x_usart.o
 .text.USART_SendBreak
                0x00000000        0xc ..\obj\stm32f10x_usart.o
 .text.USART_SetGuardTime
                0x00000000       0x14 ..\obj\stm32f10x_usart.o
 .text.USART_SetPrescaler
                0x00000000       0x14 ..\obj\stm32f10x_usart.o
 .text.USART_SmartCardCmd
                0x00000000       0x1c ..\obj\stm32f10x_usart.o
 .text.USART_SmartCardNACKCmd
                0x00000000       0x1c ..\obj\stm32f10x_usart.o
 .text.USART_HalfDuplexCmd
                0x00000000       0x1c ..\obj\stm32f10x_usart.o
 .text.USART_OverSampling8Cmd
                0x00000000       0x1c ..\obj\stm32f10x_usart.o
 .text.USART_OneBitMethodCmd
                0x00000000       0x1c ..\obj\stm32f10x_usart.o
 .text.USART_IrDAConfig
                0x00000000       0x18 ..\obj\stm32f10x_usart.o
 .text.USART_IrDACmd
                0x00000000       0x1c ..\obj\stm32f10x_usart.o
 .text.USART_ClearITPendingBit
                0x00000000       0x10 ..\obj\stm32f10x_usart.o
 .text          0x00000000        0x0 ..\obj\schedule.o
 .data          0x00000000        0x0 ..\obj\schedule.o
 .text          0x00000000        0x0 ..\obj\datalink.o
 .data          0x00000000        0x0 ..\obj\datalink.o
 .bss           0x00000000        0x0 ..\obj\datalink.o
 .text          0x00000000        0x0 ..\obj\syscalls.o
 .data          0x00000000        0x0 ..\obj\syscalls.o
 .bss           0x00000000        0x4 ..\obj\syscalls.o
 .text._sbrk    0x00000000       0x1c ..\obj\syscalls.o
 .text.link     0x00000000        0x8 ..\obj\syscalls.o
 .text._close   0x00000000        0x8 ..\obj\syscalls.o
 .text._fstat   0x00000000        0xc ..\obj\syscalls.o
 .text._isatty  0x00000000        0x4 ..\obj\syscalls.o
 .text._lseek   0x00000000        0x4 ..\obj\syscalls.o
 .text._read    0x00000000        0x4 ..\obj\syscalls.o
 .text._write   0x00000000        0x4 ..\obj\syscalls.o
 .text.abort    0x00000000        0x4 ..\obj\syscalls.o
 .debug_info    0x00000000      0x432 ..\obj\syscalls.o
 .debug_abbrev  0x00000000      0x147 ..\obj\syscalls.o
 .debug_loc     0x00000000       0xe7 ..\obj\syscalls.o
 .debug_aranges
                0x00000000       0x58 ..\obj\syscalls.o
 .debug_ranges  0x00000000       0x48 ..\obj\syscalls.o
 .debug_line    0x00000000      0x1c6 ..\obj\syscalls.o
 .debug_str     0x00000000      0x319 ..\obj\syscalls.o
 .comment       0x00000000       0x6f ..\obj\syscalls.o
 .debug_frame   0x00000000       0xa0 ..\obj\syscalls.o
 .ARM.attributes
                0x00000000       0x33 ..\obj\syscalls.o
 .text          0x00000000        0x0 ..\obj\adc.o
 .data          0x00000000        0x0 ..\obj\adc.o
 .bss           0x00000000        0x0 ..\obj\adc.o
 .text          0x00000000        0x0 ..\obj\stm32f10x_dma.o
 .data          0x00000000        0x0 ..\obj\stm32f10x_dma.o
 .bss           0x00000000        0x0 ..\obj\stm32f10x_dma.o
 .text.DMA_StructInit
                0x00000000       0x1c ..\obj\stm32f10x_dma.o
 .text.DMA_ITConfig
                0x00000000       0x14 ..\obj\stm32f10x_dma.o
 .text.DMA_SetCurrDataCounter
                0x00000000        0x4 ..\obj\stm32f10x_dma.o
 .text.DMA_GetCurrDataCounter
                0x00000000        0x8 ..\obj\stm32f10x_dma.o
 .text.DMA_GetFlagStatus
                0x00000000       0x1c ..\obj\stm32f10x_dma.o
 .text.DMA_ClearFlag
                0x00000000       0x14 ..\obj\stm32f10x_dma.o
 .text.DMA_GetITStatus
                0x00000000       0x1c ..\obj\stm32f10x_dma.o
 .text.DMA_ClearITPendingBit
                0x00000000       0x14 ..\obj\stm32f10x_dma.o
 .text          0x00000000        0x0 ..\obj\nvic.o
 .data          0x00000000        0x0 ..\obj\nvic.o
 .bss           0x00000000        0x0 ..\obj\nvic.o
 .text.initialise_nvic_group
                0x00000000        0x8 ..\obj\nvic.o
 .debug_info    0x00000000       0xde ..\obj\nvic.o
 .debug_abbrev  0x00000000       0x92 ..\obj\nvic.o
 .debug_aranges
                0x00000000       0x20 ..\obj\nvic.o
 .debug_ranges  0x00000000       0x10 ..\obj\nvic.o
 .debug_line    0x00000000      0x18c ..\obj\nvic.o
 .debug_str     0x00000000      0x196 ..\obj\nvic.o
 .comment       0x00000000       0x6f ..\obj\nvic.o
 .debug_frame   0x00000000       0x20 ..\obj\nvic.o
 .ARM.attributes
                0x00000000       0x33 ..\obj\nvic.o
 .text          0x00000000        0x0 ..\obj\misc.o
 .data          0x00000000        0x0 ..\obj\misc.o
 .bss           0x00000000        0x0 ..\obj\misc.o
 .text.NVIC_SetVectorTable
                0x00000000       0x14 ..\obj\misc.o
 .text.NVIC_SystemLPConfig
                0x00000000       0x18 ..\obj\misc.o
 .text          0x00000000        0x0 ..\obj\systick.o
 .data          0x00000000        0x0 ..\obj\systick.o
 .text.get_systime_us
                0x00000000       0x2c ..\obj\systick.o
 .text          0x00000000        0x0 ..\obj\usart.o
 .data          0x00000000        0x0 ..\obj\usart.o
 .bss           0x00000000        0x0 ..\obj\usart.o
 .text.usart_send_string
                0x00000000       0x38 ..\obj\usart.o
 .data          0x00000000        0x0 c:/program files (x86)/gnu tools arm embedded/5.4 2016q3/bin/../lib/gcc/arm-none-eabi/5.4.1/armv7-m\libgcc.a(_arm_addsubdf3.o)
 .bss           0x00000000        0x0 c:/program files (x86)/gnu tools arm embedded/5.4 2016q3/bin/../lib/gcc/arm-none-eabi/5.4.1/armv7-m\libgcc.a(_arm_addsubdf3.o)
 .data          0x00000000        0x0 c:/program files (x86)/gnu tools arm embedded/5.4 2016q3/bin/../lib/gcc/arm-none-eabi/5.4.1/armv7-m\libgcc.a(_arm_muldivdf3.o)
 .bss           0x00000000        0x0 c:/program files (x86)/gnu tools arm embedded/5.4 2016q3/bin/../lib/gcc/arm-none-eabi/5.4.1/armv7-m\libgcc.a(_arm_muldivdf3.o)
 .data          0x00000000        0x0 c:/program files (x86)/gnu tools arm embedded/5.4 2016q3/bin/../lib/gcc/arm-none-eabi/5.4.1/armv7-m\libgcc.a(_arm_fixunsdfsi.o)
 .bss           0x00000000        0x0 c:/program files (x86)/gnu tools arm embedded/5.4 2016q3/bin/../lib/gcc/arm-none-eabi/5.4.1/armv7-m\libgcc.a(_arm_fixunsdfsi.o)
 .text          0x00000000        0x0 c:/program files (x86)/gnu tools arm embedded/5.4 2016q3/bin/../lib/gcc/arm-none-eabi/5.4.1/../../../../arm-none-eabi/lib/armv7-m\libg.a(lib_a-impure.o)
 .data          0x00000000        0x0 c:/program files (x86)/gnu tools arm embedded/5.4 2016q3/bin/../lib/gcc/arm-none-eabi/5.4.1/../../../../arm-none-eabi/lib/armv7-m\libg.a(lib_a-impure.o)
 .bss           0x00000000        0x0 c:/program files (x86)/gnu tools arm embedded/5.4 2016q3/bin/../lib/gcc/arm-none-eabi/5.4.1/../../../../arm-none-eabi/lib/armv7-m\libg.a(lib_a-impure.o)
 .rodata._global_impure_ptr
                0x00000000        0x4 c:/program files (x86)/gnu tools arm embedded/5.4 2016q3/bin/../lib/gcc/arm-none-eabi/5.4.1/../../../../arm-none-eabi/lib/armv7-m\libg.a(lib_a-impure.o)
 .data          0x00000000        0x0 c:/program files (x86)/gnu tools arm embedded/5.4 2016q3/bin/../lib/gcc/arm-none-eabi/5.4.1/../../../../arm-none-eabi/lib/armv7-m\libg.a(lib_a-memcpy.o)
 .bss           0x00000000        0x0 c:/program files (x86)/gnu tools arm embedded/5.4 2016q3/bin/../lib/gcc/arm-none-eabi/5.4.1/../../../../arm-none-eabi/lib/armv7-m\libg.a(lib_a-memcpy.o)
 .text          0x00000000        0x0 c:/program files (x86)/gnu tools arm embedded/5.4 2016q3/bin/../lib/gcc/arm-none-eabi/5.4.1/../../../../arm-none-eabi/lib/armv7-m\libg.a(lib_a-memset.o)
 .data          0x00000000        0x0 c:/program files (x86)/gnu tools arm embedded/5.4 2016q3/bin/../lib/gcc/arm-none-eabi/5.4.1/../../../../arm-none-eabi/lib/armv7-m\libg.a(lib_a-memset.o)
 .bss           0x00000000        0x0 c:/program files (x86)/gnu tools arm embedded/5.4 2016q3/bin/../lib/gcc/arm-none-eabi/5.4.1/../../../../arm-none-eabi/lib/armv7-m\libg.a(lib_a-memset.o)
 .text          0x00000000        0x0 c:/program files (x86)/gnu tools arm embedded/5.4 2016q3/bin/../lib/gcc/arm-none-eabi/5.4.1/../../../../arm-none-eabi/lib/armv7-m\libg.a(lib_a-strlen-stub.o)
 .data          0x00000000        0x0 c:/program files (x86)/gnu tools arm embedded/5.4 2016q3/bin/../lib/gcc/arm-none-eabi/5.4.1/../../../../arm-none-eabi/lib/armv7-m\libg.a(lib_a-strlen-stub.o)
 .bss           0x00000000        0x0 c:/program files (x86)/gnu tools arm embedded/5.4 2016q3/bin/../lib/gcc/arm-none-eabi/5.4.1/../../../../arm-none-eabi/lib/armv7-m\libg.a(lib_a-strlen-stub.o)
 .text.strlen   0x00000000       0x5c c:/program files (x86)/gnu tools arm embedded/5.4 2016q3/bin/../lib/gcc/arm-none-eabi/5.4.1/../../../../arm-none-eabi/lib/armv7-m\libg.a(lib_a-strlen-stub.o)
 .debug_frame   0x00000000       0x20 c:/program files (x86)/gnu tools arm embedded/5.4 2016q3/bin/../lib/gcc/arm-none-eabi/5.4.1/../../../../arm-none-eabi/lib/armv7-m\libg.a(lib_a-strlen-stub.o)
 .ARM.attributes
                0x00000000       0x2d c:/program files (x86)/gnu tools arm embedded/5.4 2016q3/bin/../lib/gcc/arm-none-eabi/5.4.1/../../../../arm-none-eabi/lib/armv7-m\libg.a(lib_a-strlen-stub.o)

Memory Configuration

Name             Origin             Length             Attributes
rom              0x08000000         0x00040000         xr
ram              0x20000000         0x0000c000         xrw
*default*        0x00000000         0xffffffff

Linker script and memory map

                0x2000c000                _eram = 0x2000c000

.text           0x08000000     0x2865
 *(.isr_vector)
 .isr_vector    0x08000000      0x134 ..\obj\startup_stm32f10x_hd.o
                0x08000000                g_pfnVectors
 *(.text*)
 .text.SystemInit
                0x08000134      0x104 ..\obj\system_stm32f10x.o
                0x08000134                SystemInit
 .text.Default_Handler
                0x08000238        0x4 ..\obj\startup_stm32f10x_hd.o
                0x08000238                EXTI2_IRQHandler
                0x08000238                TIM8_TRG_COM_IRQHandler
                0x08000238                TIM8_CC_IRQHandler
                0x08000238                DebugMon_Handler
                0x08000238                TIM1_CC_IRQHandler
                0x08000238                HardFault_Handler
                0x08000238                TIM6_IRQHandler
                0x08000238                PVD_IRQHandler
                0x08000238                SDIO_IRQHandler
                0x08000238                PendSV_Handler
                0x08000238                NMI_Handler
                0x08000238                EXTI3_IRQHandler
                0x08000238                EXTI0_IRQHandler
                0x08000238                I2C2_EV_IRQHandler
                0x08000238                UsageFault_Handler
                0x08000238                ADC1_2_IRQHandler
                0x08000238                SPI1_IRQHandler
                0x08000238                TAMPER_IRQHandler
                0x08000238                TIM8_UP_IRQHandler
                0x08000238                DMA2_Channel2_IRQHandler
                0x08000238                DMA1_Channel4_IRQHandler
                0x08000238                RTC_IRQHandler
                0x08000238                DMA1_Channel7_IRQHandler
                0x08000238                CAN1_RX1_IRQHandler
                0x08000238                UART5_IRQHandler
                0x08000238                ADC3_IRQHandler
                0x08000238                TIM4_IRQHandler
                0x08000238                DMA2_Channel1_IRQHandler
                0x08000238                I2C1_EV_IRQHandler
                0x08000238                DMA1_Channel6_IRQHandler
                0x08000238                TIM3_IRQHandler
                0x08000238                RCC_IRQHandler
                0x08000238                TIM1_TRG_COM_IRQHandler
                0x08000238                DMA1_Channel1_IRQHandler
                0x08000238                EXTI15_10_IRQHandler
                0x08000238                TIM7_IRQHandler
                0x08000238                TIM5_IRQHandler
                0x08000238                EXTI9_5_IRQHandler
                0x08000238                SPI2_IRQHandler
                0x08000238                MemManage_Handler
                0x08000238                SVC_Handler
                0x08000238                DMA1_Channel5_IRQHandler
                0x08000238                EXTI4_IRQHandler
                0x08000238                USB_LP_CAN1_RX0_IRQHandler
                0x08000238                USB_HP_CAN1_TX_IRQHandler
                0x08000238                DMA1_Channel3_IRQHandler
                0x08000238                FSMC_IRQHandler
                0x08000238                TIM1_UP_IRQHandler
                0x08000238                WWDG_IRQHandler
                0x08000238                TIM2_IRQHandler
                0x08000238                TIM1_BRK_IRQHandler
                0x08000238                EXTI1_IRQHandler
                0x08000238                RTCAlarm_IRQHandler
                0x08000238                DMA2_Channel4_5_IRQHandler
                0x08000238                I2C2_ER_IRQHandler
                0x08000238                DMA1_Channel2_IRQHandler
                0x08000238                TIM8_BRK_IRQHandler
                0x08000238                CAN1_SCE_IRQHandler
                0x08000238                FLASH_IRQHandler
                0x08000238                BusFault_Handler
                0x08000238                USART1_IRQHandler
                0x08000238                SPI3_IRQHandler
                0x08000238                I2C1_ER_IRQHandler
                0x08000238                USBWakeUp_IRQHandler
                0x08000238                DMA2_Channel3_IRQHandler
 .text.Default_Reset_Handler
                0x0800023c       0x4c ..\obj\startup_stm32f10x_hd.o
                0x0800023c                Default_Reset_Handler
                0x0800023c                Reset_Handler
 .text.GPIO_Init
                0x08000288      0x3cc ..\obj\stm32f10x_gpio.o
                0x08000288                GPIO_Init
 .text.startup.main
                0x08000654       0xb0 ..\obj\main.o
                0x08000654                main
 .text.initialise_board
                0x08000704       0x44 ..\obj\init.o
                0x08000704                initialise_board
 .text.play_voice
                0x08000748       0x38 ..\obj\playvoice.o
                0x08000748                play_voice
 .text.PutUnsignedInt
                0x08000780       0xa4 ..\obj\printf.o
                0x08000780                PutUnsignedInt
 .text.PutSignedInt
                0x08000824      0x174 ..\obj\printf.o
                0x08000824                PutSignedInt
 .text.PutHexa  0x08000998       0xb4 ..\obj\printf.o
                0x08000998                PutHexa
 .text.vsnprintf
                0x08000a4c      0x51c ..\obj\printf.o
                0x08000a4c                vsnprintf
 .text.vfprintf
                0x08000f68       0xa0 ..\obj\printf.o
                0x08000f68                vfprintf
 .text.printf   0x08001008       0x28 ..\obj\printf.o
                0x08001008                printf
 .text.RCC_ADCCLKConfig
                0x08001030       0x14 ..\obj\stm32f10x_rcc.o
                0x08001030                RCC_ADCCLKConfig
 .text.RCC_GetClocksFreq
                0x08001044       0x98 ..\obj\stm32f10x_rcc.o
                0x08001044                RCC_GetClocksFreq
 .text.RCC_AHBPeriphClockCmd
                0x080010dc       0x1c ..\obj\stm32f10x_rcc.o
                0x080010dc                RCC_AHBPeriphClockCmd
 .text.RCC_APB2PeriphClockCmd
                0x080010f8       0x1c ..\obj\stm32f10x_rcc.o
                0x080010f8                RCC_APB2PeriphClockCmd
 .text.RCC_APB1PeriphClockCmd
                0x08001114       0x1c ..\obj\stm32f10x_rcc.o
                0x08001114                RCC_APB1PeriphClockCmd
 .text.THINKGEAR_initParser
                0x08001130       0x20 ..\obj\StreamParser.o
                0x08001130                THINKGEAR_initParser
 .text.THINKGEAR_parseByte
                0x08001150      0x144 ..\obj\StreamParser.o
                0x08001150                THINKGEAR_parseByte
 .text.ADC_Init
                0x08001294       0x48 ..\obj\stm32f10x_adc.o
                0x08001294                ADC_Init
 .text.ADC_Cmd  0x080012dc       0x14 ..\obj\stm32f10x_adc.o
                0x080012dc                ADC_Cmd
 .text.ADC_DMACmd
                0x080012f0       0x14 ..\obj\stm32f10x_adc.o
                0x080012f0                ADC_DMACmd
 .text.ADC_ResetCalibration
                0x08001304        0xc ..\obj\stm32f10x_adc.o
                0x08001304                ADC_ResetCalibration
 .text.ADC_GetResetCalibrationStatus
                0x08001310        0x8 ..\obj\stm32f10x_adc.o
                0x08001310                ADC_GetResetCalibrationStatus
 .text.ADC_StartCalibration
                0x08001318        0xc ..\obj\stm32f10x_adc.o
                0x08001318                ADC_StartCalibration
 .text.ADC_GetCalibrationStatus
                0x08001324        0x8 ..\obj\stm32f10x_adc.o
                0x08001324                ADC_GetCalibrationStatus
 .text.ADC_SoftwareStartConvCmd
                0x0800132c       0x14 ..\obj\stm32f10x_adc.o
                0x0800132c                ADC_SoftwareStartConvCmd
 .text.ADC_RegularChannelConfig
                0x08001340       0x94 ..\obj\stm32f10x_adc.o
                0x08001340                ADC_RegularChannelConfig
 .text.USART_Init
                0x080013d4       0xbc ..\obj\stm32f10x_usart.o
                0x080013d4                USART_Init
 .text.USART_Cmd
                0x08001490       0x1c ..\obj\stm32f10x_usart.o
                0x08001490                USART_Cmd
 .text.USART_ITConfig
                0x080014ac       0x38 ..\obj\stm32f10x_usart.o
                0x080014ac                USART_ITConfig
 .text.USART_SendData
                0x080014e4        0x8 ..\obj\stm32f10x_usart.o
                0x080014e4                USART_SendData
 .text.USART_ReceiveData
                0x080014ec        0x8 ..\obj\stm32f10x_usart.o
                0x080014ec                USART_ReceiveData
 .text.USART_GetFlagStatus
                0x080014f4        0xc ..\obj\stm32f10x_usart.o
                0x080014f4                USART_GetFlagStatus
 .text.USART_ClearFlag
                0x08001500        0x8 ..\obj\stm32f10x_usart.o
                0x08001500                USART_ClearFlag
 .text.USART_GetITStatus
                0x08001508       0x48 ..\obj\stm32f10x_usart.o
                0x08001508                USART_GetITStatus
 .text.systime_updata
                0x08001550       0x44 ..\obj\schedule.o
                0x08001550                systime_updata
 .text.should_task_run
                0x08001594       0x38 ..\obj\schedule.o
                0x08001594                should_task_run
 .text.initialise_think_data
                0x080015cc       0x20 ..\obj\datalink.o
                0x080015cc                initialise_think_data
 .text.get_data
                0x080015ec       0x6c ..\obj\datalink.o
                0x080015ec                get_data
 .text.send_value
                0x08001658       0x30 ..\obj\datalink.o
                0x08001658                send_value
 .text.USART2_IRQHandler
                0x08001688       0x2c ..\obj\datalink.o
                0x08001688                USART2_IRQHandler
 .text.USART3_IRQHandler
                0x080016b4       0x2c ..\obj\datalink.o
                0x080016b4                USART3_IRQHandler
 .text.UART4_IRQHandler
                0x080016e0       0x20 ..\obj\datalink.o
                0x080016e0                UART4_IRQHandler
 .text.initialise_adc
                0x08001700       0xf4 ..\obj\adc.o
                0x08001700                initialise_adc
 *fill*         0x080017f4        0x4 
 .text.get_distance
                0x080017f8       0xa4 ..\obj\adc.o
                0x080017f8                get_distance
 .text.DMA_DeInit
                0x0800189c      0x128 ..\obj\stm32f10x_dma.o
                0x0800189c                DMA_DeInit
 .text.DMA_Init
                0x080019c4       0x40 ..\obj\stm32f10x_dma.o
                0x080019c4                DMA_Init
 .text.DMA_Cmd  0x08001a04       0x18 ..\obj\stm32f10x_dma.o
                0x08001a04                DMA_Cmd
 .text.NVIC_PriorityGroupConfig
                0x08001a1c       0x14 ..\obj\misc.o
                0x08001a1c                NVIC_PriorityGroupConfig
 .text.NVIC_Init
                0x08001a30       0x6c ..\obj\misc.o
                0x08001a30                NVIC_Init
 .text.SysTick_CLKSourceConfig
                0x08001a9c       0x18 ..\obj\misc.o
                0x08001a9c                SysTick_CLKSourceConfig
 .text.initialise_systick
                0x08001ab4       0x44 ..\obj\systick.o
                0x08001ab4                initialise_systick
 .text.SysTick_Handler
                0x08001af8       0x10 ..\obj\systick.o
                0x08001af8                SysTick_Handler
 .text.initialise_usart1
                0x08001b08       0x84 ..\obj\usart.o
                0x08001b08                initialise_usart1
 .text.initialise_usart2
                0x08001b8c       0xb4 ..\obj\usart.o
                0x08001b8c                initialise_usart2
 .text.initialise_usart3
                0x08001c40       0xbc ..\obj\usart.o
                0x08001c40                initialise_usart3
 .text.initialise_uart4
                0x08001cfc       0xbc ..\obj\usart.o
                0x08001cfc                initialise_uart4
 .text.initialise_uart5
                0x08001db8       0x8c ..\obj\usart.o
                0x08001db8                initialise_uart5
 .text.usart_send_byte
                0x08001e44       0x18 ..\obj\usart.o
                0x08001e44                usart_send_byte
 .text.usart_send_array
                0x08001e5c       0x2c ..\obj\usart.o
                0x08001e5c                usart_send_array
 .text          0x08001e88      0x370 c:/program files (x86)/gnu tools arm embedded/5.4 2016q3/bin/../lib/gcc/arm-none-eabi/5.4.1/armv7-m\libgcc.a(_arm_addsubdf3.o)
                0x08001e88                __aeabi_drsub
                0x08001e90                __aeabi_dsub
                0x08001e90                __subdf3
                0x08001e94                __aeabi_dadd
                0x08001e94                __adddf3
                0x0800210c                __floatunsidf
                0x0800210c                __aeabi_ui2d
                0x0800212c                __floatsidf
                0x0800212c                __aeabi_i2d
                0x08002150                __aeabi_f2d
                0x08002150                __extendsfdf2
                0x0800218c                __floatundidf
                0x0800218c                __aeabi_ul2d
                0x0800219c                __floatdidf
                0x0800219c                __aeabi_l2d
 .text          0x080021f8      0x424 c:/program files (x86)/gnu tools arm embedded/5.4 2016q3/bin/../lib/gcc/arm-none-eabi/5.4.1/armv7-m\libgcc.a(_arm_muldivdf3.o)
                0x080021f8                __aeabi_dmul
                0x080021f8                __muldf3
                0x0800244c                __divdf3
                0x0800244c                __aeabi_ddiv
 .text          0x0800261c       0x40 c:/program files (x86)/gnu tools arm embedded/5.4 2016q3/bin/../lib/gcc/arm-none-eabi/5.4.1/armv7-m\libgcc.a(_arm_fixunsdfsi.o)
                0x0800261c                __aeabi_d2uiz
                0x0800261c                __fixunsdfsi
 .text          0x0800265c       0xec c:/program files (x86)/gnu tools arm embedded/5.4 2016q3/bin/../lib/gcc/arm-none-eabi/5.4.1/../../../../arm-none-eabi/lib/armv7-m\libg.a(lib_a-memcpy.o)
                0x0800265c                memcpy
 .text.memset   0x08002748       0x9c c:/program files (x86)/gnu tools arm embedded/5.4 2016q3/bin/../lib/gcc/arm-none-eabi/5.4.1/../../../../arm-none-eabi/lib/armv7-m\libg.a(lib_a-memset.o)
                0x08002748                memset
 *(.init)
 *(.fini)
 *crtbegin.o(.ctors)
 *crtbegin?.o(.ctors)
 *(EXCLUDE_FILE(*crtend.o *crtend?.o) .ctors)
 *(SORT(.ctors.*))
 *(.ctors)
 *crtbegin.o(.dtors)
 *crtbegin?.o(.dtors)
 *(EXCLUDE_FILE(*crtend.o *crtend?.o) .dtors)
 *(SORT(.dtors.*))
 *(.dtors)
 *(.rodata*)
 .rodata.str1.4
                0x080027e4       0x49 ..\obj\main.o
 *fill*         0x0800282d        0x3 
 .rodata        0x08002830        0x9 ..\obj\playvoice.o
 *fill*         0x08002839        0x3 
 .rodata.str1.4
                0x0800283c       0x24 ..\obj\printf.o
 .rodata        0x08002860        0x5 ..\obj\datalink.o
 *(.eh_fram e*)

.glue_7         0x08002868        0x0
 .glue_7        0x08002868        0x0 linker stubs

.glue_7t        0x08002868        0x0
 .glue_7t       0x08002868        0x0 linker stubs

.vfp11_veneer   0x08002868        0x0
 .vfp11_veneer  0x08002868        0x0 linker stubs

.v4_bx          0x08002868        0x0
 .v4_bx         0x08002868        0x0 linker stubs

.iplt           0x08002868        0x0
 .iplt          0x08002868        0x0 ..\obj\system_stm32f10x.o

.rel.dyn        0x08002868        0x0
 .rel.iplt      0x08002868        0x0 ..\obj\system_stm32f10x.o

.ARM.extab
 *(.ARM.extab* .gnu.linkonce.armextab.*)
                0x08002868                __exidx_start = .

.ARM.exidx
 *(.ARM.exidx* .gnu.linkonce.armexidx.*)
                0x08002868                __exidx_end = .
                0x08002868                __etext = .
                0x08002865                _sidata = __etext

.data           0x20000000      0x444 load address 0x08002865
                0x20000000                __data_start__ = .
                0x20000000                _sdata = __data_start__
 *(vtable)
 *(.data*)
 .data          0x20000000       0x14 ..\obj\stm32f10x_rcc.o
 *fill*         0x20000014        0x4 
 .data.impure_data
                0x20000018      0x428 c:/program files (x86)/gnu tools arm embedded/5.4 2016q3/bin/../lib/gcc/arm-none-eabi/5.4.1/../../../../arm-none-eabi/lib/armv7-m\libg.a(lib_a-impure.o)
 .data._impure_ptr
                0x20000440        0x4 c:/program files (x86)/gnu tools arm embedded/5.4 2016q3/bin/../lib/gcc/arm-none-eabi/5.4.1/../../../../arm-none-eabi/lib/armv7-m\libg.a(lib_a-impure.o)
                0x20000440                _impure_ptr
                0x20000444                . = ALIGN (0x4)
                [!provide]                PROVIDE (__preinit_array_start, .)
 *(.preinit_array)
                [!provide]                PROVIDE (__preinit_array_end, .)
                0x20000444                . = ALIGN (0x4)
                [!provide]                PROVIDE (__init_array_start, .)
 *(SORT(.init_array.*))
 *(.init_array)
                [!provide]                PROVIDE (__init_array_end, .)
                0x20000444                . = ALIGN (0x4)
                [!provide]                PROVIDE (__fini_array_start, .)
 *(SORT(.fini_array.*))
 *(.fini_array)
                [!provide]                PROVIDE (__fini_array_end, .)
 *(.jcr*)
                0x20000444                . = ALIGN (0x4)
                0x20000444                __data_end__ = .
                0x20000444                _edata = __data_end__

.igot.plt       0x20000444        0x0 load address 0x08002cac
 .igot.plt      0x20000444        0x0 ..\obj\system_stm32f10x.o

.bss            0x20000444       0xf4 load address 0x08002cac
                0x20000444                . = ALIGN (0x4)
                0x20000444                __bss_start__ = .
                0x20000444                _sbss = __bss_start__
 *(.bss*)
 .bss           0x20000444        0x4 ..\obj\schedule.o
                0x20000444                cnt_1ms
                0x20000446                cnt_1s
 .bss           0x20000448        0x1 ..\obj\systick.o
                0x20000448                systime_cnt
 *(COMMON)
 *fill*         0x20000449        0x1 
 COMMON         0x2000044a        0x4 ..\obj\schedule.o
                0x2000044a                task_1s
                0x2000044c                task_1ms
 *fill*         0x2000044e        0x2 
 COMMON         0x20000450       0xe5 ..\obj\datalink.o
                0x20000450                parser2
                0x200004c4                parser1
 *fill*         0x20000535        0x1 
 COMMON         0x20000536        0x2 ..\obj\adc.o
                0x20000536                adc_converted_value
                0x20000538                . = ALIGN (0x4)
                0x20000538                __bss_end__ = .
                0x20000538                _ebss = __bss_end__

.heap           0x20000538        0x0
                0x20000538                __end__ = .
                0x20000538                _end = __end__
                0x20000538                end = __end__
 *(.heap*)
                0x20000538                __HeapLimit = .

.co_stack       0x20000538      0x400 load address 0x08002da0
                0x20000538                . = ALIGN (0x8)
 *(.co_stack .co_stack.*)
 .co_stack      0x20000538      0x400 ..\obj\startup_stm32f10x_hd.o
                0x20000538                pulStack
                0x2000c000                __StackTop = (ORIGIN (ram) + LENGTH (ram))
                0x2000bc00                __StackLimit = (__StackTop - SIZEOF (.co_stack))
                [!provide]                PROVIDE (__stack, __StackTop)
                0x00000001                ASSERT ((__StackLimit >= __HeapLimit), region ram  overflowed with stack)
LOAD ..\obj\system_stm32f10x.o
LOAD ..\obj\startup_stm32f10x_hd.o
LOAD ..\obj\stm32f10x_gpio.o
LOAD ..\obj\main.o
LOAD ..\obj\init.o
LOAD ..\obj\playvoice.o
LOAD ..\obj\printf.o
LOAD ..\obj\stm32f10x_rcc.o
LOAD ..\obj\StreamParser.o
LOAD ..\obj\stm32f10x_adc.o
LOAD ..\obj\stm32f10x_usart.o
LOAD ..\obj\schedule.o
LOAD ..\obj\datalink.o
LOAD ..\obj\syscalls.o
LOAD ..\obj\adc.o
LOAD ..\obj\stm32f10x_dma.o
LOAD ..\obj\nvic.o
LOAD ..\obj\misc.o
LOAD ..\obj\systick.o
LOAD ..\obj\usart.o
START GROUP
LOAD c:/program files (x86)/gnu tools arm embedded/5.4 2016q3/bin/../lib/gcc/arm-none-eabi/5.4.1/armv7-m\libgcc.a
LOAD c:/program files (x86)/gnu tools arm embedded/5.4 2016q3/bin/../lib/gcc/arm-none-eabi/5.4.1/../../../../arm-none-eabi/lib/armv7-m\libg.a
LOAD c:/program files (x86)/gnu tools arm embedded/5.4 2016q3/bin/../lib/gcc/arm-none-eabi/5.4.1/../../../../arm-none-eabi/lib/armv7-m\libc.a
END GROUP
OUTPUT(ht.elf elf32-littlearm)

.debug_info     0x00000000     0x8ae4
 .debug_info    0x00000000      0x4c4 ..\obj\system_stm32f10x.o
 .debug_info    0x000004c4      0x122 ..\obj\startup_stm32f10x_hd.o
 .debug_info    0x000005e6      0x88f ..\obj\stm32f10x_gpio.o
 .debug_info    0x00000e75      0x2f8 ..\obj\main.o
 .debug_info    0x0000116d      0x1c0 ..\obj\init.o
 .debug_info    0x0000132d      0x261 ..\obj\playvoice.o
 .debug_info    0x0000158e     0x23d1 ..\obj\printf.o
 .debug_info    0x0000395f      0x942 ..\obj\stm32f10x_rcc.o
 .debug_info    0x000042a1      0x30d ..\obj\StreamParser.o
 .debug_info    0x000045ae      0xc27 ..\obj\stm32f10x_adc.o
 .debug_info    0x000051d5      0xb26 ..\obj\stm32f10x_usart.o
 .debug_info    0x00005cfb      0x181 ..\obj\schedule.o
 .debug_info    0x00005e7c      0x58a ..\obj\datalink.o
 .debug_info    0x00006406      0x7db ..\obj\adc.o
 .debug_info    0x00006be1      0x426 ..\obj\stm32f10x_dma.o
 .debug_info    0x00007007      0x55c ..\obj\misc.o
 .debug_info    0x00007563      0x768 ..\obj\systick.o
 .debug_info    0x00007ccb      0xe19 ..\obj\usart.o

.debug_abbrev   0x00000000     0x1e65
 .debug_abbrev  0x00000000      0x16e ..\obj\system_stm32f10x.o
 .debug_abbrev  0x0000016e       0xdf ..\obj\startup_stm32f10x_hd.o
 .debug_abbrev  0x0000024d      0x200 ..\obj\stm32f10x_gpio.o
 .debug_abbrev  0x0000044d       0xef ..\obj\main.o
 .debug_abbrev  0x0000053c       0xa8 ..\obj\init.o
 .debug_abbrev  0x000005e4      0x11c ..\obj\playvoice.o
 .debug_abbrev  0x00000700      0x3da ..\obj\printf.o
 .debug_abbrev  0x00000ada      0x26e ..\obj\stm32f10x_rcc.o
 .debug_abbrev  0x00000d48      0x162 ..\obj\StreamParser.o
 .debug_abbrev  0x00000eaa      0x1e6 ..\obj\stm32f10x_adc.o
 .debug_abbrev  0x00001090      0x1e4 ..\obj\stm32f10x_usart.o
 .debug_abbrev  0x00001274       0xc6 ..\obj\schedule.o
 .debug_abbrev  0x0000133a      0x1c7 ..\obj\datalink.o
 .debug_abbrev  0x00001501      0x1a6 ..\obj\adc.o
 .debug_abbrev  0x000016a7      0x1c6 ..\obj\stm32f10x_dma.o
 .debug_abbrev  0x0000186d      0x156 ..\obj\misc.o
 .debug_abbrev  0x000019c3      0x24d ..\obj\systick.o
 .debug_abbrev  0x00001c10      0x255 ..\obj\usart.o

.debug_loc      0x00000000     0x70f7
 .debug_loc     0x00000000       0xbc ..\obj\system_stm32f10x.o
 .debug_loc     0x000000bc     0x1532 ..\obj\stm32f10x_gpio.o
 .debug_loc     0x000015ee       0xd8 ..\obj\main.o
 .debug_loc     0x000016c6       0x21 ..\obj\playvoice.o
 .debug_loc     0x000016e7     0x35f7 ..\obj\printf.o
 .debug_loc     0x00004cde      0x739 ..\obj\stm32f10x_rcc.o
 .debug_loc     0x00005417      0x351 ..\obj\StreamParser.o
 .debug_loc     0x00005768      0x9cd ..\obj\stm32f10x_adc.o
 .debug_loc     0x00006135      0x84f ..\obj\stm32f10x_usart.o
 .debug_loc     0x00006984       0x85 ..\obj\schedule.o
 .debug_loc     0x00006a09      0x10f ..\obj\datalink.o
 .debug_loc     0x00006b18       0xfe ..\obj\stm32f10x_dma.o
 .debug_loc     0x00006c16      0x193 ..\obj\misc.o
 .debug_loc     0x00006da9       0x86 ..\obj\systick.o
 .debug_loc     0x00006e2f      0x2c8 ..\obj\usart.o

.debug_aranges  0x00000000      0x738
 .debug_aranges
                0x00000000       0x28 ..\obj\system_stm32f10x.o
 .debug_aranges
                0x00000028       0x28 ..\obj\startup_stm32f10x_hd.o
 .debug_aranges
                0x00000050       0xa8 ..\obj\stm32f10x_gpio.o
 .debug_aranges
                0x000000f8       0x20 ..\obj\main.o
 .debug_aranges
                0x00000118       0x20 ..\obj\init.o
 .debug_aranges
                0x00000138       0x20 ..\obj\playvoice.o
 .debug_aranges
                0x00000158       0xa0 ..\obj\printf.o
 .debug_aranges
                0x000001f8      0x118 ..\obj\stm32f10x_rcc.o
 .debug_aranges
                0x00000310       0x30 ..\obj\StreamParser.o
 .debug_aranges
                0x00000340      0x138 ..\obj\stm32f10x_adc.o
 .debug_aranges
                0x00000478      0x100 ..\obj\stm32f10x_usart.o
 .debug_aranges
                0x00000578       0x28 ..\obj\schedule.o
 .debug_aranges
                0x000005a0       0x48 ..\obj\datalink.o
 .debug_aranges
                0x000005e8       0x28 ..\obj\adc.o
 .debug_aranges
                0x00000610       0x60 ..\obj\stm32f10x_dma.o
 .debug_aranges
                0x00000670       0x40 ..\obj\misc.o
 .debug_aranges
                0x000006b0       0x30 ..\obj\systick.o
 .debug_aranges
                0x000006e0       0x58 ..\obj\usart.o

.debug_ranges   0x00000000      0xcc0
 .debug_ranges  0x00000000       0x40 ..\obj\system_stm32f10x.o
 .debug_ranges  0x00000040       0x18 ..\obj\startup_stm32f10x_hd.o
 .debug_ranges  0x00000058       0x98 ..\obj\stm32f10x_gpio.o
 .debug_ranges  0x000000f0       0x10 ..\obj\main.o
 .debug_ranges  0x00000100       0x10 ..\obj\init.o
 .debug_ranges  0x00000110       0x10 ..\obj\playvoice.o
 .debug_ranges  0x00000120      0x688 ..\obj\printf.o
 .debug_ranges  0x000007a8      0x128 ..\obj\stm32f10x_rcc.o
 .debug_ranges  0x000008d0       0x38 ..\obj\StreamParser.o
 .debug_ranges  0x00000908      0x128 ..\obj\stm32f10x_adc.o
 .debug_ranges  0x00000a30       0xf0 ..\obj\stm32f10x_usart.o
 .debug_ranges  0x00000b20       0x18 ..\obj\schedule.o
 .debug_ranges  0x00000b38       0x38 ..\obj\datalink.o
 .debug_ranges  0x00000b70       0x30 ..\obj\adc.o
 .debug_ranges  0x00000ba0       0x50 ..\obj\stm32f10x_dma.o
 .debug_ranges  0x00000bf0       0x30 ..\obj\misc.o
 .debug_ranges  0x00000c20       0x58 ..\obj\systick.o
 .debug_ranges  0x00000c78       0x48 ..\obj\usart.o

.debug_line     0x00000000     0x3a47
 .debug_line    0x00000000      0x1fc ..\obj\system_stm32f10x.o
 .debug_line    0x000001fc       0x91 ..\obj\startup_stm32f10x_hd.o
 .debug_line    0x0000028d      0x4b6 ..\obj\stm32f10x_gpio.o
 .debug_line    0x00000743      0x30a ..\obj\main.o
 .debug_line    0x00000a4d      0x25d ..\obj\init.o
 .debug_line    0x00000caa      0x1e4 ..\obj\playvoice.o
 .debug_line    0x00000e8e      0x7ba ..\obj\printf.o
 .debug_line    0x00001648      0x4c1 ..\obj\stm32f10x_rcc.o
 .debug_line    0x00001b09      0x2b4 ..\obj\StreamParser.o
 .debug_line    0x00001dbd      0x53d ..\obj\stm32f10x_adc.o
 .debug_line    0x000022fa      0x4b2 ..\obj\stm32f10x_usart.o
 .debug_line    0x000027ac      0x1d7 ..\obj\schedule.o
 .debug_line    0x00002983      0x2da ..\obj\datalink.o
 .debug_line    0x00002c5d      0x26d ..\obj\adc.o
 .debug_line    0x00002eca      0x2db ..\obj\stm32f10x_dma.o
 .debug_line    0x000031a5      0x241 ..\obj\misc.o
 .debug_line    0x000033e6      0x26c ..\obj\systick.o
 .debug_line    0x00003652      0x3f5 ..\obj\usart.o

.debug_str      0x00000000     0x2762
 .debug_str     0x00000000      0x282 ..\obj\system_stm32f10x.o
                                0x2f1 (size before relaxing)
 .debug_str     0x00000282       0xb6 ..\obj\startup_stm32f10x_hd.o
                                0x158 (size before relaxing)
 .debug_str     0x00000338      0x3c6 ..\obj\stm32f10x_gpio.o
                                0x532 (size before relaxing)
 .debug_str     0x000006fe      0x144 ..\obj\main.o
                                0x28e (size before relaxing)
 .debug_str     0x00000842       0xd4 ..\obj\init.o
                                0x221 (size before relaxing)
 .debug_str     0x00000916       0xc3 ..\obj\playvoice.o
                                0x261 (size before relaxing)
 .debug_str     0x000009d9      0x4e4 ..\obj\printf.o
                                0x728 (size before relaxing)
 .debug_str     0x00000ebd      0x3cb ..\obj\stm32f10x_rcc.o
                                0x61c (size before relaxing)
 .debug_str     0x00001288      0x15f ..\obj\StreamParser.o
                                0x2fc (size before relaxing)
 .debug_str     0x000013e7      0x533 ..\obj\stm32f10x_adc.o
                                0x714 (size before relaxing)
 .debug_str     0x0000191a      0x408 ..\obj\stm32f10x_usart.o
                                0x6d2 (size before relaxing)
 .debug_str     0x00001d22       0x77 ..\obj\schedule.o
                                0x1e6 (size before relaxing)
 .debug_str     0x00001d99       0x9d ..\obj\datalink.o
                                0x3ed (size before relaxing)
 .debug_str     0x00001e36      0x18d ..\obj\adc.o
                                0x60b (size before relaxing)
 .debug_str     0x00001fc3       0xf3 ..\obj\stm32f10x_dma.o
                                0x384 (size before relaxing)
 .debug_str     0x000020b6      0x1a4 ..\obj\misc.o
                                0x3c0 (size before relaxing)
 .debug_str     0x0000225a      0x445 ..\obj\systick.o
                                0x72a (size before relaxing)
 .debug_str     0x0000269f       0xc3 ..\obj\usart.o
                                0x9e6 (size before relaxing)

.comment        0x00000000       0x6e
 .comment       0x00000000       0x6e ..\obj\system_stm32f10x.o
                                 0x6f (size before relaxing)
 .comment       0x0000006e       0x6f ..\obj\startup_stm32f10x_hd.o
 .comment       0x0000006e       0x6f ..\obj\stm32f10x_gpio.o
 .comment       0x0000006e       0x6f ..\obj\main.o
 .comment       0x0000006e       0x6f ..\obj\init.o
 .comment       0x0000006e       0x6f ..\obj\playvoice.o
 .comment       0x0000006e       0x6f ..\obj\printf.o
 .comment       0x0000006e       0x6f ..\obj\stm32f10x_rcc.o
 .comment       0x0000006e       0x6f ..\obj\StreamParser.o
 .comment       0x0000006e       0x6f ..\obj\stm32f10x_adc.o
 .comment       0x0000006e       0x6f ..\obj\stm32f10x_usart.o
 .comment       0x0000006e       0x6f ..\obj\schedule.o
 .comment       0x0000006e       0x6f ..\obj\datalink.o
 .comment       0x0000006e       0x6f ..\obj\adc.o
 .comment       0x0000006e       0x6f ..\obj\stm32f10x_dma.o
 .comment       0x0000006e       0x6f ..\obj\misc.o
 .comment       0x0000006e       0x6f ..\obj\systick.o
 .comment       0x0000006e       0x6f ..\obj\usart.o

.ARM.attributes
                0x00000000       0x31
 .ARM.attributes
                0x00000000       0x33 ..\obj\system_stm32f10x.o
 .ARM.attributes
                0x00000033       0x33 ..\obj\startup_stm32f10x_hd.o
 .ARM.attributes
                0x00000066       0x33 ..\obj\stm32f10x_gpio.o
 .ARM.attributes
                0x00000099       0x33 ..\obj\main.o
 .ARM.attributes
                0x000000cc       0x33 ..\obj\init.o
 .ARM.attributes
                0x000000ff       0x33 ..\obj\playvoice.o
 .ARM.attributes
                0x00000132       0x33 ..\obj\printf.o
 .ARM.attributes
                0x00000165       0x33 ..\obj\stm32f10x_rcc.o
 .ARM.attributes
                0x00000198       0x33 ..\obj\StreamParser.o
 .ARM.attributes
                0x000001cb       0x33 ..\obj\stm32f10x_adc.o
 .ARM.attributes
                0x000001fe       0x33 ..\obj\stm32f10x_usart.o
 .ARM.attributes
                0x00000231       0x33 ..\obj\schedule.o
 .ARM.attributes
                0x00000264       0x33 ..\obj\datalink.o
 .ARM.attributes
                0x00000297       0x33 ..\obj\adc.o
 .ARM.attributes
                0x000002ca       0x33 ..\obj\stm32f10x_dma.o
 .ARM.attributes
                0x000002fd       0x33 ..\obj\misc.o
 .ARM.attributes
                0x00000330       0x33 ..\obj\systick.o
 .ARM.attributes
                0x00000363       0x33 ..\obj\usart.o
 .ARM.attributes
                0x00000396       0x1d c:/program files (x86)/gnu tools arm embedded/5.4 2016q3/bin/../lib/gcc/arm-none-eabi/5.4.1/armv7-m\libgcc.a(_arm_addsubdf3.o)
 .ARM.attributes
                0x000003b3       0x1d c:/program files (x86)/gnu tools arm embedded/5.4 2016q3/bin/../lib/gcc/arm-none-eabi/5.4.1/armv7-m\libgcc.a(_arm_muldivdf3.o)
 .ARM.attributes
                0x000003d0       0x1d c:/program files (x86)/gnu tools arm embedded/5.4 2016q3/bin/../lib/gcc/arm-none-eabi/5.4.1/armv7-m\libgcc.a(_arm_fixunsdfsi.o)
 .ARM.attributes
                0x000003ed       0x2d c:/program files (x86)/gnu tools arm embedded/5.4 2016q3/bin/../lib/gcc/arm-none-eabi/5.4.1/../../../../arm-none-eabi/lib/armv7-m\libg.a(lib_a-impure.o)
 .ARM.attributes
                0x0000041a       0x1b c:/program files (x86)/gnu tools arm embedded/5.4 2016q3/bin/../lib/gcc/arm-none-eabi/5.4.1/../../../../arm-none-eabi/lib/armv7-m\libg.a(lib_a-memcpy.o)
 .ARM.attributes
                0x00000435       0x2d c:/program files (x86)/gnu tools arm embedded/5.4 2016q3/bin/../lib/gcc/arm-none-eabi/5.4.1/../../../../arm-none-eabi/lib/armv7-m\libg.a(lib_a-memset.o)

.debug_frame    0x00000000     0x1130
 .debug_frame   0x00000000       0x48 ..\obj\system_stm32f10x.o
 .debug_frame   0x00000048       0x3c ..\obj\startup_stm32f10x_hd.o
 .debug_frame   0x00000084      0x1b0 ..\obj\stm32f10x_gpio.o
 .debug_frame   0x00000234       0x30 ..\obj\main.o
 .debug_frame   0x00000264       0x2c ..\obj\init.o
 .debug_frame   0x00000290       0x30 ..\obj\playvoice.o
 .debug_frame   0x000002c0      0x2b0 ..\obj\printf.o
 .debug_frame   0x00000570      0x224 ..\obj\stm32f10x_rcc.o
 .debug_frame   0x00000794       0x60 ..\obj\StreamParser.o
 .debug_frame   0x000007f4      0x2c0 ..\obj\stm32f10x_adc.o
 .debug_frame   0x00000ab4      0x258 ..\obj\stm32f10x_usart.o
 .debug_frame   0x00000d0c       0x30 ..\obj\schedule.o
 .debug_frame   0x00000d3c       0xb0 ..\obj\datalink.o
 .debug_frame   0x00000dec       0x54 ..\obj\adc.o
 .debug_frame   0x00000e40       0xd0 ..\obj\stm32f10x_dma.o
 .debug_frame   0x00000f10       0x6c ..\obj\misc.o
 .debug_frame   0x00000f7c       0x60 ..\obj\systick.o
 .debug_frame   0x00000fdc      0x120 ..\obj\usart.o
 .debug_frame   0x000010fc       0x34 c:/program files (x86)/gnu tools arm embedded/5.4 2016q3/bin/../lib/gcc/arm-none-eabi/5.4.1/../../../../arm-none-eabi/lib/armv7-m\libg.a(lib_a-memset.o)
